; Function Attrs: inlinehint mustprogress nofree norecurse nosync nounwind willreturn memory(read, argmem: readwrite, inaccessiblemem: none) uwtable
define internal fastcc i64 @get_ue_coef(ptr noundef nonnull captures(none) %0, ptr noundef readonly captures(none) %1) unnamed_addr #5 {
  %3 = getelementptr inbounds nuw i8, ptr %1, i64 7
  %4 = load i8, ptr %3, align 1, !tbaa !57
  switch i8 %4, label %146 [
    i8 0, label %5
    i8 1, label %111
  ]

5:                                                ; preds = %2
  %.sroa.0.0.copyload.i.i = load ptr, ptr %0, align 8, !tbaa !113
  %.sroa.46.0..sroa_idx.i.i = getelementptr inbounds nuw i8, ptr %0, i64 16
  %.sroa.46.0.copyload.i.i = load i32, ptr %.sroa.46.0..sroa_idx.i.i, align 8, !tbaa !83
  %.sroa.77.0..sroa_idx.i.i = getelementptr inbounds nuw i8, ptr %0, i64 24
  %.sroa.77.0.copyload.i.i = load i32, ptr %.sroa.77.0..sroa_idx.i.i, align 8, !tbaa !83
  %6 = lshr i32 %.sroa.46.0.copyload.i.i, 3
  %7 = zext nneg i32 %6 to i64
  %8 = getelementptr inbounds nuw i8, ptr %.sroa.0.0.copyload.i.i, i64 %7
  %9 = load i32, ptr %8, align 1, !tbaa !45
  %10 = tail call i32 @llvm.bswap.i32(i32 %9)
  %11 = and i32 %.sroa.46.0.copyload.i.i, 7
  %12 = shl i32 %10, %11
  %13 = and i32 %12, -65536
  %14 = add i32 %.sroa.46.0.copyload.i.i, 16
  %15 = tail call i32 @llvm.umin.i32(i32 %.sroa.77.0.copyload.i.i, i32 %14)
  %16 = lshr i32 %15, 3
  %17 = zext nneg i32 %16 to i64
  %18 = getelementptr inbounds nuw i8, ptr %.sroa.0.0.copyload.i.i, i64 %17
  %19 = load i32, ptr %18, align 1, !tbaa !45
  %20 = tail call i32 @llvm.bswap.i32(i32 %19)
  %21 = and i32 %15, 7
  %22 = shl i32 %20, %21
  %23 = lshr i32 %22, 16
  %24 = or disjoint i32 %23, %13
  %.not.i.i = icmp ult i32 %12, 65536
  %25 = lshr i32 %12, 16
  %spec.select.i.i = select i1 %.not.i.i, i32 %24, i32 %25
  %spec.select12.i.i = select i1 %.not.i.i, i32 0, i32 16
  %.not11.i.i = icmp samesign ult i32 %spec.select.i.i, 256
  %26 = lshr i32 %spec.select.i.i, 8
  %27 = or disjoint i32 %spec.select12.i.i, 8
  %.110.i.i = select i1 %.not11.i.i, i32 %spec.select.i.i, i32 %26
  %.1.i.i = select i1 %.not11.i.i, i32 %spec.select12.i.i, i32 %27
  %28 = zext nneg i32 %.110.i.i to i64
  %29 = getelementptr inbounds nuw [256 x i8], ptr @ff_log2_tab, i64 0, i64 %28
  %30 = load i8, ptr %29, align 1, !tbaa !45
  %31 = zext i8 %30 to i32
  %32 = add nuw nsw i32 %.1.i.i, %31
  %33 = sub nsw i32 31, %32
  %34 = sub nsw i32 0, %.sroa.46.0.copyload.i.i
  %35 = sub nsw i32 %.sroa.77.0.copyload.i.i, %.sroa.46.0.copyload.i.i
  %36 = icmp slt i32 %33, %34
  %..i.i.i = tail call i32 @llvm.smin.i32(i32 range(i32 -2147483616, -2147483648) %33, i32 %35)
  %.0.i.i.i = select i1 %36, i32 %34, i32 %..i.i.i
  %37 = add nsw i32 %.0.i.i.i, %.sroa.46.0.copyload.i.i
  store i32 %37, ptr %.sroa.46.0..sroa_idx.i.i, align 8, !tbaa !47
  %.not.i5.i = icmp eq i32 %32, 32
  br i1 %.not.i5.i, label %get_ue_golomb_long.exit, label %38

38:                                               ; preds = %5
  %39 = icmp samesign ugt i32 %32, 6
  %40 = lshr i32 %37, 3
  %41 = zext nneg i32 %40 to i64
  %42 = getelementptr inbounds nuw i8, ptr %.sroa.0.0.copyload.i.i, i64 %41
  %43 = load i32, ptr %42, align 1, !tbaa !45
  %44 = tail call i32 @llvm.bswap.i32(i32 %43)
  %45 = and i32 %37, 7
  %46 = shl i32 %44, %45
  br i1 %39, label %47, label %51

47:                                               ; preds = %38
  %48 = lshr i32 %46, %32
  %reass.sub = sub i32 %37, %32
  %49 = add i32 %reass.sub, 32
  %50 = tail call i32 @llvm.umin.i32(i32 %.sroa.77.0.copyload.i.i, i32 %49)
  store i32 %50, ptr %.sroa.46.0..sroa_idx.i.i, align 8, !tbaa !47
  br label %get_ue_golomb_long.exit

51:                                               ; preds = %38
  %52 = lshr i32 %46, 16
  %53 = add i32 %37, 16
  %54 = tail call i32 @llvm.umin.i32(i32 %.sroa.77.0.copyload.i.i, i32 %53)
  store i32 %54, ptr %.sroa.46.0..sroa_idx.i.i, align 8, !tbaa !47
  %55 = sub nuw nsw i32 16, %32
  %56 = shl nuw i32 %52, %55
  %57 = lshr i32 %54, 3
  %58 = zext nneg i32 %57 to i64
  %59 = getelementptr inbounds nuw i8, ptr %.sroa.0.0.copyload.i.i, i64 %58
  %60 = load i32, ptr %59, align 1, !tbaa !45
  %61 = tail call i32 @llvm.bswap.i32(i32 %60)
  %62 = and i32 %54, 7
  %63 = shl i32 %61, %62
  %64 = or disjoint i32 %31, 16
  %65 = lshr i32 %63, %64
  %66 = add i32 %54, %55
  %67 = tail call i32 @llvm.umin.i32(i32 %.sroa.77.0.copyload.i.i, i32 %66)
  store i32 %67, ptr %.sroa.46.0..sroa_idx.i.i, align 8, !tbaa !47
  %68 = or i32 %65, %56
  br label %get_ue_golomb_long.exit

get_ue_golomb_long.exit:                          ; preds = %5, %47, %51
  %69 = phi i32 [ %50, %47 ], [ %67, %51 ], [ %37, %5 ]
  %.0.i.i = phi i32 [ %48, %47 ], [ %68, %51 ], [ 0, %5 ]
  %70 = add i32 %.0.i.i, -1
  %71 = zext i32 %70 to i64
  %72 = getelementptr inbounds nuw i8, ptr %1, i64 8
  %73 = load i8, ptr %72, align 2, !tbaa !58
  %74 = zext i8 %73 to i32
  %.not.i = icmp eq i8 %73, 0
  br i1 %.not.i, label %get_bits_long.exit, label %75

75:                                               ; preds = %get_ue_golomb_long.exit
  %76 = icmp ult i8 %73, 26
  %77 = lshr i32 %69, 3
  %78 = zext nneg i32 %77 to i64
  %79 = getelementptr inbounds nuw i8, ptr %.sroa.0.0.copyload.i.i, i64 %78
  %80 = load i32, ptr %79, align 1, !tbaa !45
  %81 = tail call i32 @llvm.bswap.i32(i32 %80)
  %82 = and i32 %69, 7
  %83 = shl i32 %81, %82
  br i1 %76, label %84, label %89

84:                                               ; preds = %75
  %85 = sub nuw nsw i32 32, %74
  %86 = lshr i32 %83, %85
  %87 = add i32 %69, %74
  %88 = tail call i32 @llvm.umin.i32(i32 %.sroa.77.0.copyload.i.i, i32 %87)
  store i32 %88, ptr %.sroa.46.0..sroa_idx.i.i, align 8, !tbaa !47
  br label %get_bits_long.exit

89:                                               ; preds = %75
  %90 = lshr i32 %83, 16
  %91 = add i32 %69, 16
  %92 = tail call i32 @llvm.umin.i32(i32 %.sroa.77.0.copyload.i.i, i32 %91)
  store i32 %92, ptr %.sroa.46.0..sroa_idx.i.i, align 8, !tbaa !47
  %93 = add nsw i32 %74, -16
  %94 = shl i32 %90, %93
  %95 = lshr i32 %92, 3
  %96 = zext nneg i32 %95 to i64
  %97 = getelementptr inbounds nuw i8, ptr %.sroa.0.0.copyload.i.i, i64 %96
  %98 = load i32, ptr %97, align 1, !tbaa !45
  %99 = tail call i32 @llvm.bswap.i32(i32 %98)
  %100 = and i32 %92, 7
  %101 = shl i32 %99, %100
  %102 = sub nsw i32 48, %74
  %103 = lshr i32 %101, %102
  %104 = add i32 %92, %93
  %105 = tail call i32 @llvm.umin.i32(i32 %.sroa.77.0.copyload.i.i, i32 %104)
  store i32 %105, ptr %.sroa.46.0..sroa_idx.i.i, align 8, !tbaa !47
  %106 = or i32 %103, %94
  br label %get_bits_long.exit

get_bits_long.exit:                               ; preds = %get_ue_golomb_long.exit, %84, %89
  %.0.i = phi i32 [ %86, %84 ], [ %106, %89 ], [ 0, %get_ue_golomb_long.exit ]
  %107 = zext nneg i8 %73 to i64
  %108 = shl i64 %71, %107
  %109 = zext i32 %.0.i to i64
  %110 = or i64 %108, %109
  br label %146

111:                                              ; preds = %2
  %112 = getelementptr inbounds nuw i8, ptr %0, i64 16
  %113 = load i32, ptr %112, align 8, !tbaa !47
  %114 = getelementptr inbounds nuw i8, ptr %0, i64 24
  %115 = load i32, ptr %114, align 8, !tbaa !43
  %116 = load ptr, ptr %0, align 8, !tbaa !40
  %117 = lshr i32 %113, 3
  %118 = zext nneg i32 %117 to i64
  %119 = getelementptr inbounds nuw i8, ptr %116, i64 %118
  %120 = load i32, ptr %119, align 1, !tbaa !45
  %121 = tail call i32 @llvm.bswap.i32(i32 %120)
  %122 = and i32 %113, 7
  %123 = shl i32 %121, %122
  %124 = and i32 %123, -65536
  %125 = add i32 %113, 16
  %126 = tail call i32 @llvm.umin.i32(i32 %115, i32 %125)
  store i32 %126, ptr %112, align 8, !tbaa !47
  %127 = lshr i32 %126, 3
  %128 = zext nneg i32 %127 to i64
  %129 = getelementptr inbounds nuw i8, ptr %116, i64 %128
  %130 = load i32, ptr %129, align 1, !tbaa !45
  %131 = tail call i32 @llvm.bswap.i32(i32 %130)
  %132 = and i32 %126, 7
  %133 = shl i32 %131, %132
  %134 = lshr i32 %133, 16
  %135 = add i32 %126, 16
  %136 = tail call i32 @llvm.umin.i32(i32 %115, i32 %135)
  store i32 %136, ptr %112, align 8, !tbaa !47
  %137 = or disjoint i32 %134, %124
  %138 = bitcast i32 %137 to float
  %139 = getelementptr inbounds nuw i8, ptr %1, i64 8
  %140 = load i8, ptr %139, align 2, !tbaa !58
  %141 = zext nneg i8 %140 to i64
  %142 = shl nuw i64 1, %141
  %143 = sitofp i64 %142 to float
  %144 = fmul nsz float %138, %143
  %145 = fptoui float %144 to i64
  br label %146

146:                                              ; preds = %2, %111, %get_bits_long.exit
  %.0 = phi i64 [ %145, %111 ], [ %110, %get_bits_long.exit ], [ 0, %2 ]
  ret i64 %.0
}